target datalayout = "e-m:e-p270:32:32-p271:32:32-p272:64:64-i64:64-i128:128-f80:128-n8:16:32:64-S128"
target triple = "x86_64-pc-linux-gnu"

%struct.quic_conn_id_st = type { i8, [20 x i8] }
%union.bio_addr_st = type { %struct.sockaddr_in6, [84 x i8] }
%struct.sockaddr_in6 = type { i16, i16, i32, %struct.in6_addr, i32 }
%struct.in6_addr = type { %union.anon }
%union.anon = type { [4 x i32] }
%struct.OSSL_TIME = type { i64 }
%struct.quic_channel_st = type { ptr, %struct.anon, %struct.anon.0, ptr, ptr, ptr, ptr, ptr, ptr, ptr, i64, %union.bio_addr_st, ptr, ptr, ptr, %struct.quic_txfc_st, %struct.quic_rxfc_st, [3 x %struct.quic_rxfc_st], %struct.quic_rxfc_st, %struct.quic_rxfc_st, %struct.quic_stream_map_st, %struct.ossl_statm_st, ptr, ptr, ptr, ptr, ptr, ptr, ptr, ptr, [3 x ptr], [3 x ptr], %struct.quic_conn_id_st, %struct.quic_conn_id_st, %struct.quic_conn_id_st, %struct.quic_conn_id_st, %struct.quic_conn_id_st, %struct.quic_conn_id_st, i64, i64, i64, i64, i64, i64, i64, i64, i64, i64, i8, i16, ptr, i64, i64, i64, i64, i64, i64, i64, i64, i64, i64, i64, i64, i64, %struct.quic_terminate_cause_st, %struct.OSSL_TIME, %struct.OSSL_TIME, %struct.OSSL_TIME, %struct.OSSL_TIME, %struct.OSSL_TIME, i64, i64, i64, ptr, ptr, i64, ptr }
%struct.anon = type { ptr, ptr }
%struct.anon.0 = type { ptr, ptr }
%struct.quic_txfc_st = type { ptr, i64, i64, i8 }
%struct.quic_rxfc_st = type { i64, i64, i64, i64, i64, i64, i64, %struct.OSSL_TIME, ptr, ptr, ptr, i8, i8, i8, i8 }
%struct.quic_stream_map_st = type { ptr, %struct.quic_stream_list_node_st, %struct.quic_stream_list_node_st, %struct.quic_stream_list_node_st, i64, i64, i64, i64, i64, ptr, ptr, ptr, ptr, ptr, i32 }
%struct.quic_stream_list_node_st = type { ptr, ptr }
%struct.ossl_statm_st = type { %struct.OSSL_TIME, %struct.OSSL_TIME, %struct.OSSL_TIME, %struct.OSSL_TIME, i8 }
%struct.quic_terminate_cause_st = type { i64, i64, ptr, i64, i8 }

@.str = private unnamed_addr constant [35 x i8] c"../openssl/ssl/quic/quic_channel.c\00", align 1
@.str.7 = private unnamed_addr constant [3 x i8] c" (\00", align 1
@.str.8 = private unnamed_addr constant [2 x i8] c")\00", align 1
@.str.9 = private unnamed_addr constant [1 x i8] zeroinitializer, align 1
@__func__.ossl_quic_channel_raise_protocol_error_loc = private unnamed_addr constant [43 x i8] c"ossl_quic_channel_raise_protocol_error_loc\00", align 1
@.str.10 = private unnamed_addr constant [84 x i8] c"QUIC error code: 0x%llx%s%s%s (triggered by frame type: 0x%llx%s%s%s), reason: \22%s\22\00", align 1
@.str.11 = private unnamed_addr constant [44 x i8] c"QUIC error code: 0x%llx%s%s%s, reason: \22%s\22\00", align 1

; Function Attrs: nounwind uwtable
define internal void @ch_save_err_state(ptr noundef %0) #0 {
  %2 = alloca ptr, align 8
  store ptr %0, ptr %2, align 8, !tbaa !3
  %3 = load ptr, ptr %2, align 8, !tbaa !3
  %4 = getelementptr inbounds nuw %struct.quic_channel_st, ptr %3, i32 0, i32 73
  %5 = load ptr, ptr %4, align 8, !tbaa !168
  %6 = icmp eq ptr %5, null
  br i1 %6, label %7, label %11

7:                                                ; preds = %1
  %8 = call ptr @OSSL_ERR_STATE_new()
  %9 = load ptr, ptr %2, align 8, !tbaa !3
  %10 = getelementptr inbounds nuw %struct.quic_channel_st, ptr %9, i32 0, i32 73
  store ptr %8, ptr %10, align 8, !tbaa !168
  br label %11

11:                                               ; preds = %7, %1
  %12 = load ptr, ptr %2, align 8, !tbaa !3
  %13 = getelementptr inbounds nuw %struct.quic_channel_st, ptr %12, i32 0, i32 73
  %14 = load ptr, ptr %13, align 8, !tbaa !168
  %15 = icmp eq ptr %14, null
  br i1 %15, label %16, label %17

16:                                               ; preds = %11
  br label %21

17:                                               ; preds = %11
  %18 = load ptr, ptr %2, align 8, !tbaa !3
  %19 = getelementptr inbounds nuw %struct.quic_channel_st, ptr %18, i32 0, i32 73
  %20 = load ptr, ptr %19, align 8, !tbaa !168
  call void @OSSL_ERR_STATE_save(ptr noundef %20)
  br label %21

21:                                               ; preds = %17, %16
  ret void
}

; Function Attrs: nounwind uwtable
define void @ossl_quic_channel_raise_protocol_error_loc(ptr noundef %0, i64 noundef %1, i64 noundef %2, ptr noundef %3, ptr noundef %4, ptr noundef %5, i32 noundef %6, ptr noundef %7) #0 {
  %9 = alloca ptr, align 8
  %10 = alloca i64, align 8
  %11 = alloca i64, align 8
  %12 = alloca ptr, align 8
  %13 = alloca ptr, align 8
  %14 = alloca ptr, align 8
  %15 = alloca i32, align 4
  %16 = alloca ptr, align 8
  %17 = alloca %struct.quic_terminate_cause_st, align 8
  %18 = alloca i32, align 4
  %19 = alloca ptr, align 8
  %20 = alloca ptr, align 8
  %21 = alloca ptr, align 8
  %22 = alloca ptr, align 8
  %23 = alloca ptr, align 8
  %24 = alloca ptr, align 8
  %25 = alloca i32, align 4
  store ptr %0, ptr %9, align 8, !tbaa !3
  store i64 %1, ptr %10, align 8, !tbaa !47
  store i64 %2, ptr %11, align 8, !tbaa !47
  store ptr %3, ptr %12, align 8, !tbaa !176
  store ptr %4, ptr %13, align 8, !tbaa !198
  store ptr %5, ptr %14, align 8, !tbaa !176
  store i32 %6, ptr %15, align 4, !tbaa !80
  store ptr %7, ptr %16, align 8, !tbaa !176
  call void @llvm.lifetime.start.p0(i64 40, ptr %17) #9
  call void @llvm.memset.p0.i64(ptr align 8 %17, i8 0, i64 40, i1 false)
  call void @llvm.lifetime.start.p0(i64 4, ptr %18) #9
  %26 = load i64, ptr %10, align 8, !tbaa !47
  %27 = icmp eq i64 %26, 1
  %28 = select i1 %27, i32 786691, i32 382
  store i32 %28, ptr %18, align 4, !tbaa !80
  call void @llvm.lifetime.start.p0(i64 8, ptr %19) #9
  %29 = load i64, ptr %10, align 8, !tbaa !47
  %30 = call ptr @ossl_quic_err_to_string(i64 noundef %29)
  store ptr %30, ptr %19, align 8, !tbaa !176
  call void @llvm.lifetime.start.p0(i64 8, ptr %20) #9
  store ptr @.str.7, ptr %20, align 8, !tbaa !176
  call void @llvm.lifetime.start.p0(i64 8, ptr %21) #9
  store ptr @.str.8, ptr %21, align 8, !tbaa !176
  call void @llvm.lifetime.start.p0(i64 8, ptr %22) #9
  store ptr null, ptr %22, align 8, !tbaa !176
  call void @llvm.lifetime.start.p0(i64 8, ptr %23) #9
  store ptr @.str.7, ptr %23, align 8, !tbaa !176
  call void @llvm.lifetime.start.p0(i64 8, ptr %24) #9
  store ptr @.str.8, ptr %24, align 8, !tbaa !176
  %31 = load ptr, ptr %9, align 8, !tbaa !3
  %32 = getelementptr inbounds nuw %struct.quic_channel_st, ptr %31, i32 0, i32 72
  %33 = load i64, ptr %32, align 8
  %34 = lshr i64 %33, 38
  %35 = and i64 %34, 1
  %36 = trunc i64 %35 to i32
  %37 = icmp ne i32 %36, 0
  br i1 %37, label %38, label %39

38:                                               ; preds = %8
  store i32 1, ptr %25, align 4
  br label %99

39:                                               ; preds = %8
  %40 = load ptr, ptr %19, align 8, !tbaa !176
  %41 = icmp eq ptr %40, null
  br i1 %41, label %42, label %43

42:                                               ; preds = %39
  store ptr @.str.9, ptr %19, align 8, !tbaa !176
  store ptr @.str.9, ptr %20, align 8, !tbaa !176
  store ptr @.str.9, ptr %21, align 8, !tbaa !176
  br label %43

43:                                               ; preds = %42, %39
  %44 = load ptr, ptr %13, align 8, !tbaa !198
  %45 = icmp ne ptr %44, null
  br i1 %45, label %46, label %48

46:                                               ; preds = %43
  %47 = load ptr, ptr %13, align 8, !tbaa !198
  call void @OSSL_ERR_STATE_restore(ptr noundef %47)
  br label %48

48:                                               ; preds = %46, %43
  %49 = load i64, ptr %11, align 8, !tbaa !47
  %50 = icmp ne i64 %49, 0
  br i1 %50, label %51, label %68

51:                                               ; preds = %48
  %52 = load i64, ptr %11, align 8, !tbaa !47
  %53 = call ptr @ossl_quic_frame_type_to_string(i64 noundef %52)
  store ptr %53, ptr %22, align 8, !tbaa !176
  %54 = load ptr, ptr %22, align 8, !tbaa !176
  %55 = icmp eq ptr %54, null
  br i1 %55, label %56, label %57

56:                                               ; preds = %51
  store ptr @.str.9, ptr %22, align 8, !tbaa !176
  store ptr @.str.9, ptr %23, align 8, !tbaa !176
  store ptr @.str.9, ptr %24, align 8, !tbaa !176
  br label %57

57:                                               ; preds = %56, %51
  call void @ERR_new()
  call void @ERR_set_debug(ptr noundef @.str, i32 noundef 3499, ptr noundef @__func__.ossl_quic_channel_raise_protocol_error_loc)
  %58 = load i32, ptr %18, align 4, !tbaa !80
  %59 = load i64, ptr %10, align 8, !tbaa !47
  %60 = load ptr, ptr %20, align 8, !tbaa !176
  %61 = load ptr, ptr %19, align 8, !tbaa !176
  %62 = load ptr, ptr %21, align 8, !tbaa !176
  %63 = load i64, ptr %11, align 8, !tbaa !47
  %64 = load ptr, ptr %23, align 8, !tbaa !176
  %65 = load ptr, ptr %22, align 8, !tbaa !176
  %66 = load ptr, ptr %24, align 8, !tbaa !176
  %67 = load ptr, ptr %12, align 8, !tbaa !176
  call void (i32, i32, ptr, ...) @ERR_set_error(i32 noundef 20, i32 noundef %58, ptr noundef @.str.10, i64 noundef %59, ptr noundef %60, ptr noundef %61, ptr noundef %62, i64 noundef %63, ptr noundef %64, ptr noundef %65, ptr noundef %66, ptr noundef %67)
  br label %75

68:                                               ; preds = %48
  call void @ERR_new()
  call void @ERR_set_debug(ptr noundef @.str, i32 noundef 3508, ptr noundef @__func__.ossl_quic_channel_raise_protocol_error_loc)
  %69 = load i32, ptr %18, align 4, !tbaa !80
  %70 = load i64, ptr %10, align 8, !tbaa !47
  %71 = load ptr, ptr %20, align 8, !tbaa !176
  %72 = load ptr, ptr %19, align 8, !tbaa !176
  %73 = load ptr, ptr %21, align 8, !tbaa !176
  %74 = load ptr, ptr %12, align 8, !tbaa !176
  call void (i32, i32, ptr, ...) @ERR_set_error(i32 noundef 20, i32 noundef %69, ptr noundef @.str.11, i64 noundef %70, ptr noundef %71, ptr noundef %72, ptr noundef %73, ptr noundef %74)
  br label %75

75:                                               ; preds = %68, %57
  %76 = load ptr, ptr %14, align 8, !tbaa !176
  %77 = icmp ne ptr %76, null
  br i1 %77, label %78, label %82

78:                                               ; preds = %75
  %79 = load ptr, ptr %14, align 8, !tbaa !176
  %80 = load i32, ptr %15, align 4, !tbaa !80
  %81 = load ptr, ptr %16, align 8, !tbaa !176
  call void @ERR_set_debug(ptr noundef %79, i32 noundef %80, ptr noundef %81)
  br label %82

82:                                               ; preds = %78, %75
  %83 = load ptr, ptr %9, align 8, !tbaa !3
  call void @ch_save_err_state(ptr noundef %83)
  %84 = load i64, ptr %10, align 8, !tbaa !47
  %85 = getelementptr inbounds nuw %struct.quic_terminate_cause_st, ptr %17, i32 0, i32 0
  store i64 %84, ptr %85, align 8, !tbaa !228
  %86 = load i64, ptr %11, align 8, !tbaa !47
  %87 = getelementptr inbounds nuw %struct.quic_terminate_cause_st, ptr %17, i32 0, i32 1
  store i64 %86, ptr %87, align 8, !tbaa !239
  %88 = load ptr, ptr %12, align 8, !tbaa !176
  %89 = getelementptr inbounds nuw %struct.quic_terminate_cause_st, ptr %17, i32 0, i32 2
  store ptr %88, ptr %89, align 8, !tbaa !229
  %90 = load ptr, ptr %12, align 8, !tbaa !176
  %91 = call i64 @strlen(ptr noundef %90) #10
  %92 = getelementptr inbounds nuw %struct.quic_terminate_cause_st, ptr %17, i32 0, i32 3
  store i64 %91, ptr %92, align 8, !tbaa !230
  %93 = load ptr, ptr %9, align 8, !tbaa !3
  %94 = getelementptr inbounds nuw %struct.quic_channel_st, ptr %93, i32 0, i32 72
  %95 = load i64, ptr %94, align 8
  %96 = and i64 %95, -274877906945
  %97 = or i64 %96, 274877906944
  store i64 %97, ptr %94, align 8
  %98 = load ptr, ptr %9, align 8, !tbaa !3
  call void @ch_start_terminating(ptr noundef %98, ptr noundef %17, i32 noundef 0)
  store i32 0, ptr %25, align 4
  br label %99

99:                                               ; preds = %82, %38
  call void @llvm.lifetime.end.p0(i64 8, ptr %24) #9
  call void @llvm.lifetime.end.p0(i64 8, ptr %23) #9
  call void @llvm.lifetime.end.p0(i64 8, ptr %22) #9
  call void @llvm.lifetime.end.p0(i64 8, ptr %21) #9
  call void @llvm.lifetime.end.p0(i64 8, ptr %20) #9
  call void @llvm.lifetime.end.p0(i64 8, ptr %19) #9
  call void @llvm.lifetime.end.p0(i64 4, ptr %18) #9
  call void @llvm.lifetime.end.p0(i64 40, ptr %17) #9
  %100 = load i32, ptr %25, align 4
  switch i32 %100, label %102 [
    i32 0, label %101
    i32 1, label %101
  ]

101:                                              ; preds = %99, %99
  ret void

102:                                              ; preds = %99
  unreachable
}