; Function Attrs: nounwind uwtable
define void @ossl_quic_channel_raise_protocol_error_loc(ptr noundef %0, i64 noundef %1, i64 noundef %2, ptr noundef %3, ptr noundef %4, ptr noundef %5, i32 noundef %6, ptr noundef %7) local_unnamed_addr #0 {
  %9 = alloca %struct.quic_terminate_cause_st, align 8
  call void @llvm.lifetime.start.p0(i64 40, ptr nonnull %9) #15
  call void @llvm.memset.p0.i64(ptr noundef nonnull align 8 dereferenceable(40) %9, i8 0, i64 40, i1 false)
  %10 = icmp eq i64 %1, 1
  %11 = select i1 %10, i32 786691, i32 382
  %12 = tail call ptr @ossl_quic_err_to_string(i64 noundef %1) #15
  %13 = getelementptr inbounds nuw i8, ptr %0, i64 1568
  %14 = load i64, ptr %13, align 8
  %15 = and i64 %14, 274877906944
  %.not = icmp eq i64 %15, 0
  br i1 %.not, label %16, label %40

16:                                               ; preds = %8
  %17 = icmp eq ptr %12, null
  %.039 = select i1 %17, ptr @.str.9, ptr %12
  %.038 = select i1 %17, ptr @.str.9, ptr @.str.7
  %.037 = select i1 %17, ptr @.str.9, ptr @.str.8
  %.not45 = icmp eq ptr %4, null
  br i1 %.not45, label %19, label %18

18:                                               ; preds = %16
  tail call void @OSSL_ERR_STATE_restore(ptr noundef nonnull %4) #15
  br label %19

19:                                               ; preds = %18, %16
  %.not46 = icmp eq i64 %2, 0
  br i1 %.not46, label %23, label %20

20:                                               ; preds = %19
  %21 = tail call ptr @ossl_quic_frame_type_to_string(i64 noundef %2) #15
  %22 = icmp eq ptr %21, null
  %.036 = select i1 %22, ptr @.str.9, ptr %21
  %.035 = select i1 %22, ptr @.str.9, ptr @.str.7
  %.0 = select i1 %22, ptr @.str.9, ptr @.str.8
  tail call void @ERR_new() #15
  tail call void @ERR_set_debug(ptr noundef nonnull @.str, i32 noundef 3499, ptr noundef nonnull @__func__.ossl_quic_channel_raise_protocol_error_loc) #15
  tail call void (i32, i32, ptr, ...) @ERR_set_error(i32 noundef 20, i32 noundef %11, ptr noundef nonnull @.str.10, i64 noundef %1, ptr noundef nonnull %.038, ptr noundef nonnull %.039, ptr noundef nonnull %.037, i64 noundef %2, ptr noundef nonnull %.035, ptr noundef nonnull %.036, ptr noundef nonnull %.0, ptr noundef %3) #15
  br label %24

23:                                               ; preds = %19
  tail call void @ERR_new() #15
  tail call void @ERR_set_debug(ptr noundef nonnull @.str, i32 noundef 3508, ptr noundef nonnull @__func__.ossl_quic_channel_raise_protocol_error_loc) #15
  tail call void (i32, i32, ptr, ...) @ERR_set_error(i32 noundef 20, i32 noundef %11, ptr noundef nonnull @.str.11, i64 noundef %1, ptr noundef nonnull %.038, ptr noundef nonnull %.039, ptr noundef nonnull %.037, ptr noundef %3) #15
  br label %24

24:                                               ; preds = %23, %20
  %.not47 = icmp eq ptr %5, null
  br i1 %.not47, label %26, label %25

25:                                               ; preds = %24
  tail call void @ERR_set_debug(ptr noundef nonnull %5, i32 noundef %6, ptr noundef %7) #15
  br label %26

26:                                               ; preds = %25, %24
  %27 = getelementptr inbounds nuw i8, ptr %0, i64 1576
  %28 = load ptr, ptr %27, align 8, !tbaa !168
  %29 = icmp eq ptr %28, null
  br i1 %29, label %30, label %.thread.i

30:                                               ; preds = %26
  %31 = tail call ptr @OSSL_ERR_STATE_new() #15
  store ptr %31, ptr %27, align 8, !tbaa !168
  %32 = icmp eq ptr %31, null
  br i1 %32, label %ch_save_err_state.exit, label %.thread.i

.thread.i:                                        ; preds = %30, %26
  %33 = phi ptr [ %31, %30 ], [ %28, %26 ]
  tail call void @OSSL_ERR_STATE_save(ptr noundef nonnull %33) #15
  br label %ch_save_err_state.exit

ch_save_err_state.exit:                           ; preds = %30, %.thread.i
  store i64 %1, ptr %9, align 8, !tbaa !208
  %34 = getelementptr inbounds nuw i8, ptr %9, i64 8
  store i64 %2, ptr %34, align 8, !tbaa !230
  %35 = getelementptr inbounds nuw i8, ptr %9, i64 16
  store ptr %3, ptr %35, align 8, !tbaa !209
  %36 = tail call i64 @strlen(ptr noundef nonnull dereferenceable(1) %3) #16
  %37 = getelementptr inbounds nuw i8, ptr %9, i64 24
  store i64 %36, ptr %37, align 8, !tbaa !210
  %38 = load i64, ptr %13, align 8
  %39 = or i64 %38, 274877906944
  store i64 %39, ptr %13, align 8
  call fastcc void @ch_start_terminating(ptr noundef nonnull %0, ptr noundef %9, i32 noundef 0)
  br label %40

40:                                               ; preds = %8, %ch_save_err_state.exit
  call void @llvm.lifetime.end.p0(i64 40, ptr nonnull %9) #15
  ret void
}